Certificate:
    Data:
        Version: 1 (0x0)
        Serial Number: 1048578 (0x100002)
    Signature Algorithm: md5WithRSAEncryption
        Issuer: O=ColdFire Inc., OU=Software/emailAddress=web@andrelam.com.br, L=Sao Jose dos Campos, ST=SP, C=BR, CN=ColdFire Certificate Authority
        Validity
            Not Before: Jun 16 03:42:50 2015 GMT
            Not After : Jun 15 03:42:50 2016 GMT
        Subject: C=BR, ST=SP, O=ColdFire Inc., OU=Software, CN=localhost
        Subject Public Key Info:
            Public Key Algorithm: rsaEncryption
                Public-Key: (2048 bit)
                Modulus:
                    00:ba:49:23:06:f1:d8:00:38:1e:91:2b:1a:0b:36:
                    46:86:65:bc:4a:79:e5:2d:7c:dc:39:f9:8d:52:7e:
                    78:f3:a9:3c:73:9e:b5:5a:89:69:1f:19:3e:e5:5a:
                    bb:65:f4:76:2b:18:20:a9:10:8b:52:84:eb:19:5d:
                    09:b3:89:38:dc:e1:1d:96:e6:61:51:48:a6:9f:77:
                    4e:9d:85:78:7a:bc:f5:3d:cf:71:41:b2:48:ec:e0:
                    93:60:80:74:ba:7e:75:8e:64:72:03:a8:51:35:ea:
                    7c:0a:ca:5f:40:16:70:37:c1:c4:51:16:fc:d6:3c:
                    37:ba:ba:d1:db:25:44:51:b2:32:71:01:49:03:63:
                    82:5c:d9:f8:d7:00:a8:30:88:f3:60:b6:99:f0:1e:
                    8d:ee:05:31:8d:ac:02:b7:e2:f1:bf:0b:1b:e0:0b:
                    d0:46:88:05:e0:b0:80:2f:14:dc:ad:1d:f1:6f:1a:
                    85:83:89:19:03:f4:7a:2e:a7:f0:59:8a:c3:74:99:
                    42:19:ea:55:6a:bb:3f:c7:fa:bd:1d:ca:5b:e8:c0:
                    79:07:99:ec:ad:90:69:10:98:28:bb:7d:6e:f7:58:
                    5c:20:cb:a4:45:79:f2:86:34:8e:59:58:72:b2:4a:
                    c1:f8:4e:f7:8f:ad:74:cf:1f:66:28:b2:20:d6:82:
                    29:5f
                Exponent: 65537 (0x10001)
    Signature Algorithm: md5WithRSAEncryption
         83:e4:0e:9a:d5:46:f3:6b:1f:a0:c9:88:1c:d6:65:b9:9b:4e:
         98:fc:75:9b:15:29:9e:88:5f:af:01:52:2c:74:d9:48:ac:c2:
         1a:99:2c:66:e7:e5:71:3a:08:38:a4:e6:da:b7:9e:59:19:e5:
         68:72:53:31:30:cf:9c:58:71:b5:7d:d9:06:e2:46:a3:34:00:
         d2:b5:fd:b7:f7:83:de:b7:11:08:9f:90:e5:3a:86:94:f1:a0:
         01:9f:13:df:87:4a:48:8c:b6:72:f1:a8:89:28:7a:6a:aa:99:
         be:89:ab:90:e7:9b:fb:5f:ab:05:0c:cf:00:24:03:35:ea:77:
         ae:bd:7a:50:e2:f5:b1:ab:20:9a:d9:f3:b1:ec:15:92:69:18:
         96:0a:8f:aa:47:5f:12:6f:14:7b:80:29:19:c6:5c:ae:82:16:
         2f:32:4d:7c:79:d6:6f:5b:91:8e:28:80:68:fc:7b:db:9b:f5:
         e8:e2:c4:90:7e:c1:ad:c1:f9:54:a4:11:12:e6:1e:b5:10:73:
         6d:e6:4e:f0:22:e8:c5:64:4a:70:dd:69:e6:c1:3e:87:71:73:
         1b:4f:0a:c8:86:df:e6:85:18:c9:a9:0e:cb:c6:e9:df:dc:f2:
         5f:3a:95:87:fb:e3:35:d5:07:2d:f4:b9:d4:ae:56:80:66:47:
         18:6c:23:40
-----BEGIN CERTIFICATE-----
MIIDgDCCAmgCAxAAAjANBgkqhkiG9w0BAQQFADCBsDEWMBQGA1UEChMNQ29sZEZp
cmUgSW5jLjERMA8GA1UECxMIU29mdHdhcmUxIjAgBgkqhkiG9w0BCQEWE3dlYkBh
bmRyZWxhbS5jb20uYnIxHDAaBgNVBAcTE1NhbyBKb3NlIGRvcyBDYW1wb3MxCzAJ
BgNVBAgTAlNQMQswCQYDVQQGEwJCUjEnMCUGA1UEAxMeQ29sZEZpcmUgQ2VydGlm
aWNhdGUgQXV0aG9yaXR5MB4XDTE1MDYxNjAzNDI1MFoXDTE2MDYxNTAzNDI1MFow
WTELMAkGA1UEBhMCQlIxCzAJBgNVBAgTAlNQMRYwFAYDVQQKEw1Db2xkRmlyZSBJ
bmMuMREwDwYDVQQLEwhTb2Z0d2FyZTESMBAGA1UEAxMJbG9jYWxob3N0MIIBIjAN
BgkqhkiG9w0BAQEFAAOCAQ8AMIIBCgKCAQEAukkjBvHYADgekSsaCzZGhmW8Snnl
LXzcOfmNUn5486k8c561WolpHxk+5Vq7ZfR2KxggqRCLUoTrGV0Js4k43OEdluZh
UUimn3dOnYV4erz1Pc9xQbJI7OCTYIB0un51jmRyA6hRNep8CspfQBZwN8HEURb8
1jw3urrR2yVEUbIycQFJA2OCXNn41wCoMIjzYLaZ8B6N7gUxjawCt+Lxvwsb4AvQ
RogF4LCALxTcrR3xbxqFg4kZA/R6LqfwWYrDdJlCGepVars/x/q9Hcpb6MB5B5ns
rZBpEJgou31u91hcIMukRXnyhjSOWVhyskrB+E73j610zx9mKLIg1oIpXwIDAQAB
MA0GCSqGSIb3DQEBBAUAA4IBAQCD5A6a1Ubzax+gyYgc1mW5m06Y/HWbFSmeiF+v
AVIsdNlIrMIamSxm5+VxOgg4pObat55ZGeVoclMxMM+cWHG1fdkG4kajNADStf23
94PetxEIn5DlOoaU8aABnxPfh0pIjLZy8aiJKHpqqpm+iauQ55v7X6sFDM8AJAM1
6neuvXpQ4vWxqyCa2fOx7BWSaRiWCo+qR18SbxR7gCkZxlyughYvMk18edZvW5GO
KIBo/Hvbm/Xo4sSQfsGtwflUpBES5h61EHNt5k7wIujFZEpw3WnmwT6HcXMbTwrI
ht/mhRjJqQ7Lxunf3PJfOpWH++M11Qct9LnUrlaAZkcYbCNA
-----END CERTIFICATE-----
